(dp1
VPit restorability
p2
(dp3
(VSuitable
p4
g4
g4
tp5
F1
s(VUnsuitable
p6
g4
g6
tp7
F0.63
s(g4
g4
g6
tp8
F0.95999999999999996
s(g6
g6
g4
tp9
F0.029999999999999999
s(g6
g4
g4
tp10
F0.66000000000000003
s(g4
g6
g6
tp11
F0.92999999999999994
s(g6
g6
g6
tp12
F0.69999999999999996
s(g4
g6
g4
tp13
F0.060000000000000109
ssVThreats to other areas or
p14
(dp15
(VThreatened
p16
VAmmenable
p17
VNo threats
p18
VUnfriendly
p19
tp20
F0.5
s(g18
g17
g16
g17
tp21
F0
s(g18
g19
g16
g17
tp22
F0.20000000000000004
s(g16
g19
g18
g19
tp23
F0.14999999999999999
s(g18
g19
g16
g19
tp24
F0.40000000000000002
s(g16
g19
g16
g17
tp25
F0.69999999999999996
s(g16
g17
g18
g17
tp26
F0.94999999999999996
s(g16
g17
g16
g19
tp27
F0.20000000000000004
s(g18
g19
g18
g17
tp28
F0.94999999999999996
s(g16
g19
g16
g19
tp29
F0.40000000000000002
s(g18
g17
g18
g19
tp30
F0.45000000000000007
s(g16
g17
g16
g17
tp31
F0.5
s(g18
g17
g16
g19
tp32
F0.30000000000000004
s(g18
g19
g18
g19
tp33
F0.30000000000000004
s(g16
g19
g18
g17
tp34
F2.7755575615628914e-17
s(g18
g17
g18
g17
tp35
F0.90000000000000002
ssVFloodplain characteristic
p36
(dp37
(VStrategic
p38
g4
g4
VOutside
p39
tp40
F0.20000000000000004
s(g38
g6
g6
g39
tp41
F2.7755575615628914e-17
s(VIneffective
p42
g4
g6
g39
tp43
F0.30000000000000004
s(g38
g6
g6
VWithin
p44
tp45
F0.59999999999999998
s(g42
g6
g4
g44
tp46
F0.99999999999999989
s(g38
g6
g4
g39
tp47
F0.5
s(g38
g4
g4
g44
tp48
F1
s(g42
g4
g6
g44
tp49
F0.79999999999999993
s(g42
g6
g4
g39
tp50
F0.40000000000000002
s(g42
g4
g4
g39
tp51
F0.20000000000000004
s(g42
g6
g6
g44
tp52
F0.69999999999999996
s(g42
g6
g6
g39
tp53
F0.79999999999999993
s(g38
g4
g6
g39
tp54
F0.59999999999999998
s(g38
g4
g6
g44
tp55
F0.75
s(g38
g6
g4
g44
tp56
F0.84999999999999998
s(g42
g4
g4
g44
tp57
F0.84999999999999998
ssVConnectivity barriers
p58
(dp59
(VConnected
p60
VDisconnected
p61
g61
tp62
F0.70000000000000007
s(g60
g60
g61
tp63
F0.10000000000000014
s(g61
g61
g60
tp64
F0.40000000000000002
s(g60
g61
g60
tp65
F0.20000000000000004
s(g61
g60
g61
tp66
F0.20000000000000004
s(g61
g61
g61
tp67
F0.10000000000000003
s(g61
g60
g60
tp68
F2.7755575615628914e-17
s(g60
g60
g60
tp69
F1
ssVPit geometry
p70
(dp71
(g6
g4
g4
g6
tp72
F0.30000000000000004
s(g6
g4
g6
g6
tp73
F0.14999999999999997
s(g4
g6
g6
g6
tp74
F0.94999999999999984
s(g4
g4
g4
g6
tp75
F0.84999999999999998
s(g4
g4
g6
g6
tp76
F0.20000000000000004
s(g4
g4
g6
g4
tp77
F0.0500000000000001
s(g4
g4
g4
g4
tp78
F1
s(g4
g6
g6
g4
tp79
F0.99999999999999989
s(g6
g6
g4
g4
tp80
F0.5
s(g4
g6
g4
g6
tp81
F0.99999999999999989
s(g6
g6
g6
g6
tp82
F0.10000000000000003
s(g6
g6
g6
g4
tp83
F0.84999999999999987
s(g6
g4
g4
g4
tp84
F0.55000000000000004
s(g6
g6
g4
g6
tp85
F0.84999999999999987
s(g6
g4
g6
g4
tp86
F0.30000000000000004
s(g4
g6
g4
g4
tp87
F0.75
ssVSocio-Economic
p88
(dp89
(g16
VBeneficial
p90
tp91
F0.10000000000000003
s(g16
VCostly
p92
tp93
F0.10000000000000003
s(g18
g90
tp94
F1
s(g18
g92
tp95
F0.5
ssVSite
p96
(dp97
(g4
g6
tp98
F0.40000000000000002
s(g6
g4
tp99
F2.7755575615628914e-17
s(g6
g6
tp100
F0.5
s(g4
g4
tp101
F1
ssVWater quality threat
p102
(dp103
(g4
g6
tp104
F2.7755575615628914e-17
s(g6
g4
tp105
F0.59999999999999998
s(g6
g6
tp106
F0.99999999999999989
s(g4
g4
tp107
F0.90000000000000002
ssVPractical restorability
p108
(dp109
(g6
g4
g4
g6
tp110
F0.99999999999999989
s(g6
g4
g6
g6
tp111
F0.34999999999999998
s(g4
g6
g6
g6
tp112
F0.44999999999999996
s(g4
g4
g4
g6
tp113
F0.15000000000000011
s(g4
g4
g6
g6
tp114
F0.79999999999999993
s(g4
g4
g6
g4
tp115
F0.25000000000000011
s(g4
g4
g4
g4
tp116
F1
s(g4
g6
g6
g4
tp117
F0.30000000000000004
s(g6
g6
g4
g4
tp118
F0.59999999999999998
s(g4
g6
g4
g6
tp119
F0.79999999999999993
s(g6
g6
g6
g6
tp120
F2.7755575615628914e-17
s(g6
g6
g6
g4
tp121
F0.54999999999999993
s(g6
g4
g4
g4
tp122
F0.84999999999999998
s(g6
g6
g4
g6
tp123
F0.14999999999999997
s(g6
g4
g6
g4
tp124
F0.69999999999999996
s(g4
g6
g4
g4
tp125
F0.45000000000000007
ssVsuitability
p126
(dp127
(g4
g4
g4
tp128
F0.20000000000000015
s(g6
g4
g6
tp129
F0.049999999999999961
s(g4
g4
g6
tp130
F0.79999999999999993
s(g6
g6
g4
tp131
F2.7755575615628914e-17
s(g6
g4
g4
tp132
F0.14999999999999997
s(g4
g6
g6
tp133
F0.10000000000000003
s(g6
g6
g6
tp134
F0.10000000000000003
s(g4
g6
g4
tp135
F0.99999999999999989
ssVCost benefit
p136
(dp137
(g92
VContaminated
p138
VUnfavorable
p139
tp140
F0.40000000000000002
s(VGood Deal
p141
VClean
p142
VSupportive
p143
tp144
F0.90000000000000002
s(g141
g138
g139
tp145
F2.7755575615628914e-17
s(g92
g142
g139
tp146
F0.5
s(g92
g142
g143
tp147
F0.30000000000000004
s(g92
g138
g143
tp148
F0.59999999999999998
s(g141
g142
g139
tp149
F0.79999999999999993
s(g141
g138
g143
tp150
F0.20000000000000004
ssVBiotic conditions
p151
(dp152
(VMissing
p153
g6
VNot Present
p154
tp155
F0.20000000000000004
s(g153
g6
VPresent
p156
tp157
F0.5
s(g153
g4
g154
tp158
F0.79999999999999993
s(VIntact
p159
g4
g156
tp160
F1
s(g159
g6
g154
tp161
F0.79999999999999993
s(g159
g6
g156
tp162
F0.80000000000000004
s(g159
g4
g154
tp163
F0.80000000000000004
s(g153
g4
g156
tp164
F0.99999999999999989
ssVGeomorphic Controls
p165
(dp166
(VUnavailable
p167
VMobile
p168
g6
g6
tp169
F0.64999999999999991
s(VAvailable
p170
VNot mobile
p171
g6
g6
tp172
F0.54999999999999993
s(g167
g168
g6
g4
tp173
F0.10000000000000003
s(g167
g171
VNo restrictions
p174
g6
tp175
F0.84999999999999987
s(g167
g168
g174
g6
tp176
F0.40000000000000002
s(g170
g171
g6
g4
tp177
F0.40000000000000002
s(g170
g171
g174
g4
tp178
F0.65000000000000002
s(g167
g171
g6
g4
tp179
F0.64999999999999991
s(g167
g171
g6
g6
tp180
F0.99999999999999989
s(g167
g171
g174
g4
tp181
F0.99999999999999989
s(g170
g168
g6
g4
tp182
F0.55000000000000004
s(g170
g168
g174
g6
tp183
F0.65000000000000002
s(g170
g171
g174
g6
tp184
F0.99999999999999989
s(g170
g168
g6
g6
tp185
F0.69999999999999996
s(g170
g168
g174
g4
tp186
F0.90000000000000002
s(g167
g168
g174
g4
tp187
F0.65000000000000002
ssVAbiotic conditions
p188
(dp189
(VLow Quality
p190
g61
tp191
F0.30000000000000004
s(VHigh Quality
p192
g60
tp193
F1
s(g190
g60
tp194
F0.20000000000000015
s(g192
g61
tp195
F2.7755575615628914e-17
ssVPractical property-level 
p196
(dp197
(g167
VInaccessible
p198
g4
tp199
F0.030000000000000054
s(g170
VAccessible
p200
g4
tp201
F1.3877787807814457e-16
s(g167
g198
g6
tp202
F0.10000000000000003
s(g170
g198
g6
tp203
F0.33000000000000007
s(g170
g200
g6
tp204
F0.95999999999999996
s(g170
g198
g4
tp205
F0.16000000000000011
s(g167
g200
g6
tp206
F0.13000000000000006
s(g167
g200
g4
tp207
F0.26000000000000012
ssVLandscape
p208
(dp209
(g6
g4
g4
g6
tp210
F0.5
s(g6
g4
g6
g6
tp211
F0.14999999999999997
s(g4
g6
g6
g6
tp212
F2.7755575615628914e-17
s(g4
g4
g4
g6
tp213
F0.25000000000000011
s(g4
g4
g6
g6
tp214
F0.30000000000000004
s(g4
g4
g6
g4
tp215
F2.7755575615628914e-17
s(g4
g4
g4
g4
tp216
F0.80000000000000004
s(g4
g6
g6
g4
tp217
F0.20000000000000001
s(g6
g6
g4
g4
tp218
F0.59999999999999998
s(g4
g6
g4
g6
tp219
F2.7755575615628914e-17
s(g6
g6
g6
g6
tp220
F0.5
s(g6
g6
g6
g4
tp221
F0.049999999999999961
s(g6
g4
g4
g4
tp222
F0.15000000000000011
s(g6
g6
g4
g6
tp223
F0.049999999999999989
s(g6
g4
g6
g4
tp224
F0.049999999999999961
s(g4
g6
g4
g4
tp225
F0.84999999999999998
ssVConservation value
p226
(dp227
(VIdentified
p228
g61
g4
tp229
F0.40000000000000013
s(VNot Identified
p230
g60
g4
tp231
F0.99999999999999989
s(g230
g61
g4
tp232
F0.5
s(g230
g60
g6
tp233
F2.7755575615628914e-17
s(g228
g60
g6
tp234
F0.40000000000000013
s(g228
g61
g6
tp235
F0.79999999999999993
s(g228
g60
g4
tp236
F1
s(g230
g61
g6
tp237
F2.7755575615628914e-17
ss.